target datalayout = "e-m:e-p270:32:32-p271:32:32-p272:64:64-i64:64-i128:128-f80:128-n8:16:32:64-S128"
target triple = "x86_64-pc-linux-gnu"

%struct.GetByteContext = type { ptr, ptr, ptr }

@.str.1 = private unnamed_addr constant [30 x i8] c"Assertion %s failed at %s:%d\0A\00", align 1
@.str.2 = private unnamed_addr constant [71 x i8] c"bytestream2_tell(&gb) >= 0 && bytestream2_tell(&gb) <= data_end - data\00", align 1
@.str.3 = private unnamed_addr constant [22 x i8] c"libavformat/rtmppkt.c\00", align 1
@.str.5 = private unnamed_addr constant [14 x i8] c"buf_size >= 0\00", align 1
@.str.6 = private unnamed_addr constant [26 x i8] c"./libavcodec/bytestream.h\00", align 1

; Function Attrs: alwaysinline nounwind uwtable
define internal i32 @bytestream2_tell(ptr noundef %0) #1 {
  %2 = alloca ptr, align 8
  store ptr %0, ptr %2, align 8, !tbaa !19
  %3 = load ptr, ptr %2, align 8, !tbaa !19
  %4 = getelementptr inbounds nuw %struct.GetByteContext, ptr %3, i32 0, i32 0
  %5 = load ptr, ptr %4, align 8, !tbaa !25
  %6 = load ptr, ptr %2, align 8, !tbaa !19
  %7 = getelementptr inbounds nuw %struct.GetByteContext, ptr %6, i32 0, i32 2
  %8 = load ptr, ptr %7, align 8, !tbaa !46
  %9 = ptrtoint ptr %5 to i64
  %10 = ptrtoint ptr %8 to i64
  %11 = sub i64 %9, %10
  %12 = trunc i64 %11 to i32
  ret i32 %12
}

; Function Attrs: alwaysinline nounwind uwtable
define internal i32 @bytestream2_get_bytes_left(ptr noundef %0) #1 {
  %2 = alloca ptr, align 8
  store ptr %0, ptr %2, align 8, !tbaa !19
  %3 = load ptr, ptr %2, align 8, !tbaa !19
  %4 = getelementptr inbounds nuw %struct.GetByteContext, ptr %3, i32 0, i32 1
  %5 = load ptr, ptr %4, align 8, !tbaa !23
  %6 = load ptr, ptr %2, align 8, !tbaa !19
  %7 = getelementptr inbounds nuw %struct.GetByteContext, ptr %6, i32 0, i32 0
  %8 = load ptr, ptr %7, align 8, !tbaa !25
  %9 = ptrtoint ptr %5 to i64
  %10 = ptrtoint ptr %8 to i64
  %11 = sub i64 %9, %10
  %12 = trunc i64 %11 to i32
  ret i32 %12
}

; Function Attrs: alwaysinline nounwind uwtable
define internal void @bytestream2_init(ptr noundef %0, ptr noundef %1, i32 noundef %2) #1 {
  %4 = alloca ptr, align 8
  %5 = alloca ptr, align 8
  %6 = alloca i32, align 4
  store ptr %0, ptr %4, align 8, !tbaa !19
  store ptr %1, ptr %5, align 8, !tbaa !12
  store i32 %2, ptr %6, align 4, !tbaa !10
  br label %7

7:                                                ; preds = %3
  %8 = load i32, ptr %6, align 4, !tbaa !10
  %9 = icmp sge i32 %8, 0
  br i1 %9, label %11, label %10

10:                                               ; preds = %7
  call void (ptr, i32, ptr, ...) @av_log(ptr noundef null, i32 noundef 0, ptr noundef @.str.1, ptr noundef @.str.5, ptr noundef @.str.6, i32 noundef 141)
  call void @abort() #15
  unreachable

11:                                               ; preds = %7
  br label %12

12:                                               ; preds = %11
  %13 = load ptr, ptr %5, align 8, !tbaa !12
  %14 = load ptr, ptr %4, align 8, !tbaa !19
  %15 = getelementptr inbounds nuw %struct.GetByteContext, ptr %14, i32 0, i32 0
  store ptr %13, ptr %15, align 8, !tbaa !25
  %16 = load ptr, ptr %5, align 8, !tbaa !12
  %17 = load ptr, ptr %4, align 8, !tbaa !19
  %18 = getelementptr inbounds nuw %struct.GetByteContext, ptr %17, i32 0, i32 2
  store ptr %16, ptr %18, align 8, !tbaa !46
  %19 = load ptr, ptr %5, align 8, !tbaa !12
  %20 = load i32, ptr %6, align 4, !tbaa !10
  %21 = sext i32 %20 to i64
  %22 = getelementptr inbounds i8, ptr %19, i64 %21
  %23 = load ptr, ptr %4, align 8, !tbaa !19
  %24 = getelementptr inbounds nuw %struct.GetByteContext, ptr %23, i32 0, i32 1
  store ptr %22, ptr %24, align 8, !tbaa !23
  ret void
}

; Function Attrs: nounwind uwtable
define i32 @ff_amf_tag_size(ptr noundef %0, ptr noundef %1) #0 {
  %3 = alloca i32, align 4
  %4 = alloca ptr, align 8
  %5 = alloca ptr, align 8
  %6 = alloca %struct.GetByteContext, align 8
  %7 = alloca i32, align 4
  %8 = alloca i32, align 4
  store ptr %0, ptr %4, align 8, !tbaa !12
  store ptr %1, ptr %5, align 8, !tbaa !12
  call void @llvm.lifetime.start.p0(i64 24, ptr %6) #13
  call void @llvm.lifetime.start.p0(i64 4, ptr %7) #13
  %9 = load ptr, ptr %4, align 8, !tbaa !12
  %10 = load ptr, ptr %5, align 8, !tbaa !12
  %11 = icmp uge ptr %9, %10
  br i1 %11, label %12, label %13

12:                                               ; preds = %2
  store i32 -1, ptr %3, align 4
  store i32 1, ptr %8, align 4
  br label %46

13:                                               ; preds = %2
  %14 = load ptr, ptr %4, align 8, !tbaa !12
  %15 = load ptr, ptr %5, align 8, !tbaa !12
  %16 = load ptr, ptr %4, align 8, !tbaa !12
  %17 = ptrtoint ptr %15 to i64
  %18 = ptrtoint ptr %16 to i64
  %19 = sub i64 %17, %18
  %20 = trunc i64 %19 to i32
  call void @bytestream2_init(ptr noundef %6, ptr noundef %14, i32 noundef %20)
  %21 = call i32 @amf_tag_skip(ptr noundef %6)
  store i32 %21, ptr %7, align 4, !tbaa !10
  %22 = load i32, ptr %7, align 4, !tbaa !10
  %23 = icmp slt i32 %22, 0
  br i1 %23, label %27, label %24

24:                                               ; preds = %13
  %25 = call i32 @bytestream2_get_bytes_left(ptr noundef %6)
  %26 = icmp sle i32 %25, 0
  br i1 %26, label %27, label %28

27:                                               ; preds = %24, %13
  store i32 -1, ptr %3, align 4
  store i32 1, ptr %8, align 4
  br label %46

28:                                               ; preds = %24
  br label %29

29:                                               ; preds = %28
  %30 = call i32 @bytestream2_tell(ptr noundef %6)
  %31 = icmp sge i32 %30, 0
  br i1 %31, label %32, label %41

32:                                               ; preds = %29
  %33 = call i32 @bytestream2_tell(ptr noundef %6)
  %34 = sext i32 %33 to i64
  %35 = load ptr, ptr %5, align 8, !tbaa !12
  %36 = load ptr, ptr %4, align 8, !tbaa !12
  %37 = ptrtoint ptr %35 to i64
  %38 = ptrtoint ptr %36 to i64
  %39 = sub i64 %37, %38
  %40 = icmp sle i64 %34, %39
  br i1 %40, label %42, label %41

41:                                               ; preds = %32, %29
  call void (ptr, i32, ptr, ...) @av_log(ptr noundef null, i32 noundef 0, ptr noundef @.str.1, ptr noundef @.str.2, ptr noundef @.str.3, i32 noundef 505)
  call void @abort() #15
  unreachable

42:                                               ; preds = %32
  br label %43

43:                                               ; preds = %42
  br label %44

44:                                               ; preds = %43
  %45 = call i32 @bytestream2_tell(ptr noundef %6)
  store i32 %45, ptr %3, align 4
  store i32 1, ptr %8, align 4
  br label %46

46:                                               ; preds = %44, %27, %12
  call void @llvm.lifetime.end.p0(i64 4, ptr %7) #13
  call void @llvm.lifetime.end.p0(i64 24, ptr %6) #13
  %47 = load i32, ptr %3, align 4
  ret i32 %47
}