; Function Attrs: nounwind uwtable
define range(i32 -1, -2147483648) i32 @ff_amf_tag_size(ptr noundef %0, ptr noundef %1) local_unnamed_addr #5 {
  %3 = alloca %struct.GetByteContext, align 8
  call void @llvm.lifetime.start.p0(i64 24, ptr nonnull %3) #16
  %.not = icmp ult ptr %0, %1
  br i1 %.not, label %4, label %33

4:                                                ; preds = %2
  %5 = ptrtoint ptr %1 to i64
  %6 = ptrtoint ptr %0 to i64
  %7 = sub i64 %5, %6
  %8 = and i64 %7, 2147483648
  %9 = icmp eq i64 %8, 0
  br i1 %9, label %bytestream2_init.exit, label %10

10:                                               ; preds = %4
  tail call void (ptr, i32, ptr, ...) @av_log(ptr noundef null, i32 noundef 0, ptr noundef nonnull @.str.1, ptr noundef nonnull @.str.5, ptr noundef nonnull @.str.6, i32 noundef 141) #16
  tail call void @abort() #17
  unreachable

bytestream2_init.exit:                            ; preds = %4
  store ptr %0, ptr %3, align 8, !tbaa !12
  %11 = getelementptr inbounds nuw i8, ptr %3, i64 16
  store ptr %0, ptr %11, align 8, !tbaa !31
  %12 = and i64 %7, 2147483647
  %13 = getelementptr inbounds nuw i8, ptr %0, i64 %12
  %14 = getelementptr inbounds nuw i8, ptr %3, i64 8
  store ptr %13, ptr %14, align 8, !tbaa !10
  %15 = call fastcc i32 @amf_tag_skip(ptr noundef %3)
  %16 = icmp slt i32 %15, 0
  br i1 %16, label %33, label %17

17:                                               ; preds = %bytestream2_init.exit
  %18 = load ptr, ptr %14, align 8, !tbaa !10
  %19 = load ptr, ptr %3, align 8, !tbaa !12
  %20 = ptrtoint ptr %18 to i64
  %21 = ptrtoint ptr %19 to i64
  %22 = sub i64 %20, %21
  %23 = trunc i64 %22 to i32
  %24 = icmp slt i32 %23, 1
  br i1 %24, label %33, label %25

25:                                               ; preds = %17
  %26 = load ptr, ptr %11, align 8, !tbaa !31
  %27 = ptrtoint ptr %26 to i64
  %28 = sub i64 %21, %27
  %29 = trunc i64 %28 to i32
  %30 = icmp slt i32 %29, 0
  %31 = and i64 %28, 4294967295
  %.not10 = icmp slt i64 %7, %31
  %or.cond = or i1 %30, %.not10
  br i1 %or.cond, label %32, label %33

32:                                               ; preds = %25
  tail call void (ptr, i32, ptr, ...) @av_log(ptr noundef null, i32 noundef 0, ptr noundef nonnull @.str.1, ptr noundef nonnull @.str.2, ptr noundef nonnull @.str.3, i32 noundef 505) #16
  tail call void @abort() #17
  unreachable

33:                                               ; preds = %25, %bytestream2_init.exit, %17, %2
  %.0 = phi i32 [ -1, %2 ], [ -1, %17 ], [ -1, %bytestream2_init.exit ], [ %29, %25 ]
  call void @llvm.lifetime.end.p0(i64 24, ptr nonnull %3) #16
  ret i32 %.0
}